target datalayout = "e-m:e-p270:32:32-p271:32:32-p272:64:64-i64:64-i128:128-f80:128-n8:16:32:64-S128"
target triple = "x86_64-pc-linux-gnu"

%struct.x509_trust_st = type { i32, i32, ptr, ptr, i32, ptr }

@trtable = internal global ptr null, align 8
@.str = private unnamed_addr constant [36 x i8] c"../openssl/crypto/x509/x509_trust.c\00", align 1
@__func__.X509_TRUST_add = private unnamed_addr constant [15 x i8] c"X509_TRUST_add\00", align 1

; Function Attrs: inlinehint nounwind uwtable
define internal ptr @ossl_check_const_X509_TRUST_sk_type(ptr noundef %0) #3 {
  %2 = alloca ptr, align 8
  store ptr %0, ptr %2, align 8, !tbaa !53
  %3 = load ptr, ptr %2, align 8, !tbaa !53
  ret ptr %3
}

; Function Attrs: inlinehint nounwind uwtable
define internal ptr @ossl_check_X509_TRUST_type(ptr noundef %0) #3 {
  %2 = alloca ptr, align 8
  store ptr %0, ptr %2, align 8, !tbaa !11
  %3 = load ptr, ptr %2, align 8, !tbaa !11
  ret ptr %3
}

; Function Attrs: inlinehint nounwind uwtable
define internal ptr @ossl_check_X509_TRUST_sk_type(ptr noundef %0) #3 {
  %2 = alloca ptr, align 8
  store ptr %0, ptr %2, align 8, !tbaa !53
  %3 = load ptr, ptr %2, align 8, !tbaa !53
  ret ptr %3
}

; Function Attrs: inlinehint nounwind uwtable
define internal ptr @ossl_check_X509_TRUST_compfunc_type(ptr noundef %0) #3 {
  %2 = alloca ptr, align 8
  store ptr %0, ptr %2, align 8, !tbaa !3
  %3 = load ptr, ptr %2, align 8, !tbaa !3
  ret ptr %3
}

; Function Attrs: nounwind uwtable
define ptr @X509_TRUST_get0(i32 noundef %0) #0 {
  %2 = alloca ptr, align 8
  %3 = alloca i32, align 4
  store i32 %0, ptr %3, align 4, !tbaa !9
  %4 = load i32, ptr %3, align 4, !tbaa !9
  %5 = icmp slt i32 %4, 0
  br i1 %5, label %6, label %7

6:                                                ; preds = %1
  store ptr null, ptr %2, align 8
  br label %22

7:                                                ; preds = %1
  %8 = load i32, ptr %3, align 4, !tbaa !9
  %9 = icmp slt i32 %8, 8
  br i1 %9, label %10, label %14

10:                                               ; preds = %7
  %11 = load i32, ptr %3, align 4, !tbaa !9
  %12 = sext i32 %11 to i64
  %13 = getelementptr inbounds %struct.x509_trust_st, ptr @trstandard, i64 %12
  store ptr %13, ptr %2, align 8
  br label %22

14:                                               ; preds = %7
  %15 = load ptr, ptr @trtable, align 8, !tbaa !53
  %16 = call ptr @ossl_check_const_X509_TRUST_sk_type(ptr noundef %15)
  %17 = load i32, ptr %3, align 4, !tbaa !9
  %18 = sext i32 %17 to i64
  %19 = sub i64 %18, 8
  %20 = trunc i64 %19 to i32
  %21 = call ptr @OPENSSL_sk_value(ptr noundef %16, i32 noundef %20)
  store ptr %21, ptr %2, align 8
  br label %22

22:                                               ; preds = %14, %10, %6
  %23 = load ptr, ptr %2, align 8
  ret ptr %23
}

; Function Attrs: nounwind uwtable
define i32 @X509_TRUST_get_by_id(i32 noundef %0) #0 {
  %2 = alloca i32, align 4
  %3 = alloca i32, align 4
  %4 = alloca %struct.x509_trust_st, align 8
  %5 = alloca i32, align 4
  %6 = alloca i32, align 4
  store i32 %0, ptr %3, align 4, !tbaa !9
  call void @llvm.lifetime.start.p0(i64 40, ptr %4) #4
  call void @llvm.lifetime.start.p0(i64 4, ptr %5) #4
  %7 = load i32, ptr %3, align 4, !tbaa !9
  %8 = icmp sge i32 %7, 1
  br i1 %8, label %9, label %15

9:                                                ; preds = %1
  %10 = load i32, ptr %3, align 4, !tbaa !9
  %11 = icmp sle i32 %10, 8
  br i1 %11, label %12, label %15

12:                                               ; preds = %9
  %13 = load i32, ptr %3, align 4, !tbaa !9
  %14 = sub nsw i32 %13, 1
  store i32 %14, ptr %2, align 4
  store i32 1, ptr %6, align 4
  br label %36

15:                                               ; preds = %9, %1
  %16 = load ptr, ptr @trtable, align 8, !tbaa !53
  %17 = icmp eq ptr %16, null
  br i1 %17, label %18, label %19

18:                                               ; preds = %15
  store i32 -1, ptr %2, align 4
  store i32 1, ptr %6, align 4
  br label %36

19:                                               ; preds = %15
  %20 = load i32, ptr %3, align 4, !tbaa !9
  %21 = getelementptr inbounds nuw %struct.x509_trust_st, ptr %4, i32 0, i32 0
  store i32 %20, ptr %21, align 8, !tbaa !55
  %22 = load ptr, ptr @trtable, align 8, !tbaa !53
  %23 = call ptr @ossl_check_X509_TRUST_sk_type(ptr noundef %22)
  call void @OPENSSL_sk_sort(ptr noundef %23)
  %24 = load ptr, ptr @trtable, align 8, !tbaa !53
  %25 = call ptr @ossl_check_X509_TRUST_sk_type(ptr noundef %24)
  %26 = call ptr @ossl_check_X509_TRUST_type(ptr noundef %4)
  %27 = call i32 @OPENSSL_sk_find(ptr noundef %25, ptr noundef %26)
  store i32 %27, ptr %5, align 4, !tbaa !9
  %28 = load i32, ptr %5, align 4, !tbaa !9
  %29 = icmp slt i32 %28, 0
  br i1 %29, label %30, label %31

30:                                               ; preds = %19
  store i32 -1, ptr %2, align 4
  store i32 1, ptr %6, align 4
  br label %36

31:                                               ; preds = %19
  %32 = load i32, ptr %5, align 4, !tbaa !9
  %33 = sext i32 %32 to i64
  %34 = add i64 %33, 8
  %35 = trunc i64 %34 to i32
  store i32 %35, ptr %2, align 4
  store i32 1, ptr %6, align 4
  br label %36

36:                                               ; preds = %31, %30, %18, %12
  call void @llvm.lifetime.end.p0(i64 4, ptr %5) #4
  call void @llvm.lifetime.end.p0(i64 40, ptr %4) #4
  %37 = load i32, ptr %2, align 4
  ret i32 %37
}

; Function Attrs: nounwind uwtable
define i32 @X509_TRUST_add(i32 noundef %0, i32 noundef %1, ptr noundef %2, ptr noundef %3, i32 noundef %4, ptr noundef %5) #0 {
  %7 = alloca i32, align 4
  %8 = alloca i32, align 4
  %9 = alloca i32, align 4
  %10 = alloca ptr, align 8
  %11 = alloca ptr, align 8
  %12 = alloca i32, align 4
  %13 = alloca ptr, align 8
  %14 = alloca i32, align 4
  %15 = alloca ptr, align 8
  %16 = alloca i32, align 4
  store i32 %0, ptr %8, align 4, !tbaa !9
  store i32 %1, ptr %9, align 4, !tbaa !9
  store ptr %2, ptr %10, align 8, !tbaa !3
  store ptr %3, ptr %11, align 8, !tbaa !58
  store i32 %4, ptr %12, align 4, !tbaa !9
  store ptr %5, ptr %13, align 8, !tbaa !3
  call void @llvm.lifetime.start.p0(i64 4, ptr %14) #4
  call void @llvm.lifetime.start.p0(i64 8, ptr %15) #4
  %17 = load i32, ptr %9, align 4, !tbaa !9
  %18 = and i32 %17, -2
  store i32 %18, ptr %9, align 4, !tbaa !9
  %19 = load i32, ptr %9, align 4, !tbaa !9
  %20 = or i32 %19, 2
  store i32 %20, ptr %9, align 4, !tbaa !9
  %21 = load i32, ptr %8, align 4, !tbaa !9
  %22 = call i32 @X509_TRUST_get_by_id(i32 noundef %21)
  store i32 %22, ptr %14, align 4, !tbaa !9
  %23 = load i32, ptr %14, align 4, !tbaa !9
  %24 = icmp slt i32 %23, 0
  br i1 %24, label %25, label %32

25:                                               ; preds = %6
  %26 = call noalias ptr @CRYPTO_malloc(i64 noundef 40, ptr noundef @.str, i32 noundef 141)
  store ptr %26, ptr %15, align 8, !tbaa !11
  %27 = icmp eq ptr %26, null
  br i1 %27, label %28, label %29

28:                                               ; preds = %25
  store i32 0, ptr %7, align 4
  store i32 1, ptr %16, align 4
  br label %103

29:                                               ; preds = %25
  %30 = load ptr, ptr %15, align 8, !tbaa !11
  %31 = getelementptr inbounds nuw %struct.x509_trust_st, ptr %30, i32 0, i32 1
  store i32 1, ptr %31, align 4, !tbaa !59
  br label %35

32:                                               ; preds = %6
  %33 = load i32, ptr %14, align 4, !tbaa !9
  %34 = call ptr @X509_TRUST_get0(i32 noundef %33)
  store ptr %34, ptr %15, align 8, !tbaa !11
  br label %35

35:                                               ; preds = %32, %29
  %36 = load ptr, ptr %15, align 8, !tbaa !11
  %37 = getelementptr inbounds nuw %struct.x509_trust_st, ptr %36, i32 0, i32 1
  %38 = load i32, ptr %37, align 4, !tbaa !59
  %39 = and i32 %38, 2
  %40 = icmp ne i32 %39, 0
  br i1 %40, label %41, label %45

41:                                               ; preds = %35
  %42 = load ptr, ptr %15, align 8, !tbaa !11
  %43 = getelementptr inbounds nuw %struct.x509_trust_st, ptr %42, i32 0, i32 3
  %44 = load ptr, ptr %43, align 8, !tbaa !60
  call void @CRYPTO_free(ptr noundef %44, ptr noundef @.str, i32 noundef 149)
  br label %45

45:                                               ; preds = %41, %35
  %46 = load ptr, ptr %11, align 8, !tbaa !58
  %47 = call noalias ptr @CRYPTO_strdup(ptr noundef %46, ptr noundef @.str, i32 noundef 151)
  %48 = load ptr, ptr %15, align 8, !tbaa !11
  %49 = getelementptr inbounds nuw %struct.x509_trust_st, ptr %48, i32 0, i32 3
  store ptr %47, ptr %49, align 8, !tbaa !60
  %50 = icmp eq ptr %47, null
  br i1 %50, label %51, label %52

51:                                               ; preds = %45
  br label %94

52:                                               ; preds = %45
  %53 = load ptr, ptr %15, align 8, !tbaa !11
  %54 = getelementptr inbounds nuw %struct.x509_trust_st, ptr %53, i32 0, i32 1
  %55 = load i32, ptr %54, align 4, !tbaa !59
  %56 = and i32 %55, 1
  store i32 %56, ptr %54, align 4, !tbaa !59
  %57 = load i32, ptr %9, align 4, !tbaa !9
  %58 = load ptr, ptr %15, align 8, !tbaa !11
  %59 = getelementptr inbounds nuw %struct.x509_trust_st, ptr %58, i32 0, i32 1
  %60 = load i32, ptr %59, align 4, !tbaa !59
  %61 = or i32 %60, %57
  store i32 %61, ptr %59, align 4, !tbaa !59
  %62 = load i32, ptr %8, align 4, !tbaa !9
  %63 = load ptr, ptr %15, align 8, !tbaa !11
  %64 = getelementptr inbounds nuw %struct.x509_trust_st, ptr %63, i32 0, i32 0
  store i32 %62, ptr %64, align 8, !tbaa !55
  %65 = load ptr, ptr %10, align 8, !tbaa !3
  %66 = load ptr, ptr %15, align 8, !tbaa !11
  %67 = getelementptr inbounds nuw %struct.x509_trust_st, ptr %66, i32 0, i32 2
  store ptr %65, ptr %67, align 8, !tbaa !13
  %68 = load i32, ptr %12, align 4, !tbaa !9
  %69 = load ptr, ptr %15, align 8, !tbaa !11
  %70 = getelementptr inbounds nuw %struct.x509_trust_st, ptr %69, i32 0, i32 4
  store i32 %68, ptr %70, align 8, !tbaa !61
  %71 = load ptr, ptr %13, align 8, !tbaa !3
  %72 = load ptr, ptr %15, align 8, !tbaa !11
  %73 = getelementptr inbounds nuw %struct.x509_trust_st, ptr %72, i32 0, i32 5
  store ptr %71, ptr %73, align 8, !tbaa !62
  %74 = load i32, ptr %14, align 4, !tbaa !9
  %75 = icmp slt i32 %74, 0
  br i1 %75, label %76, label %93

76:                                               ; preds = %52
  %77 = load ptr, ptr @trtable, align 8, !tbaa !53
  %78 = icmp eq ptr %77, null
  br i1 %78, label %79, label %84

79:                                               ; preds = %76
  %80 = call ptr @ossl_check_X509_TRUST_compfunc_type(ptr noundef @tr_cmp)
  %81 = call ptr @OPENSSL_sk_new(ptr noundef %80)
  store ptr %81, ptr @trtable, align 8, !tbaa !53
  %82 = icmp eq ptr %81, null
  br i1 %82, label %83, label %84

83:                                               ; preds = %79
  call void @ERR_new()
  call void @ERR_set_debug(ptr noundef @.str, i32 noundef 167, ptr noundef @__func__.X509_TRUST_add)
  call void (i32, i32, ptr, ...) @ERR_set_error(i32 noundef 11, i32 noundef 524303, ptr noundef null)
  br label %94

84:                                               ; preds = %79, %76
  %85 = load ptr, ptr @trtable, align 8, !tbaa !53
  %86 = call ptr @ossl_check_X509_TRUST_sk_type(ptr noundef %85)
  %87 = load ptr, ptr %15, align 8, !tbaa !11
  %88 = call ptr @ossl_check_X509_TRUST_type(ptr noundef %87)
  %89 = call i32 @OPENSSL_sk_push(ptr noundef %86, ptr noundef %88)
  %90 = icmp ne i32 %89, 0
  br i1 %90, label %92, label %91

91:                                               ; preds = %84
  call void @ERR_new()
  call void @ERR_set_debug(ptr noundef @.str, i32 noundef 171, ptr noundef @__func__.X509_TRUST_add)
  call void (i32, i32, ptr, ...) @ERR_set_error(i32 noundef 11, i32 noundef 524303, ptr noundef null)
  br label %94

92:                                               ; preds = %84
  br label %93

93:                                               ; preds = %92, %52
  store i32 1, ptr %7, align 4
  store i32 1, ptr %16, align 4
  br label %103

94:                                               ; preds = %91, %83, %51
  %95 = load i32, ptr %14, align 4, !tbaa !9
  %96 = icmp slt i32 %95, 0
  br i1 %96, label %97, label %102

97:                                               ; preds = %94
  %98 = load ptr, ptr %15, align 8, !tbaa !11
  %99 = getelementptr inbounds nuw %struct.x509_trust_st, ptr %98, i32 0, i32 3
  %100 = load ptr, ptr %99, align 8, !tbaa !60
  call void @CRYPTO_free(ptr noundef %100, ptr noundef @.str, i32 noundef 178)
  %101 = load ptr, ptr %15, align 8, !tbaa !11
  call void @CRYPTO_free(ptr noundef %101, ptr noundef @.str, i32 noundef 179)
  br label %102

102:                                              ; preds = %97, %94
  store i32 0, ptr %7, align 4
  store i32 1, ptr %16, align 4
  br label %103

103:                                              ; preds = %102, %93, %28
  call void @llvm.lifetime.end.p0(i64 8, ptr %15) #4
  call void @llvm.lifetime.end.p0(i64 4, ptr %14) #4
  %104 = load i32, ptr %7, align 4
  ret i32 %104
}