; Function Attrs: nounwind uwtable
define range(i32 0, 2) i32 @X509_TRUST_add(i32 noundef %0, i32 noundef %1, ptr noundef %2, ptr noundef %3, i32 noundef %4, ptr noundef %5) local_unnamed_addr #2 {
  %7 = alloca %struct.x509_trust_st, align 8
  %8 = and i32 %1, -4
  call void @llvm.lifetime.start.p0(i64 40, ptr nonnull %7) #6
  %9 = add i32 %0, -1
  %or.cond.i = icmp ult i32 %9, 8
  br i1 %or.cond.i, label %22, label %10

10:                                               ; preds = %6
  %11 = load ptr, ptr @trtable, align 8, !tbaa !7
  %12 = icmp eq ptr %11, null
  br i1 %12, label %X509_TRUST_get_by_id.exit.thread, label %13

13:                                               ; preds = %10
  store i32 %0, ptr %7, align 8, !tbaa !9
  tail call void @OPENSSL_sk_sort(ptr noundef nonnull %11) #6
  %14 = load ptr, ptr @trtable, align 8, !tbaa !7
  %15 = call i32 @OPENSSL_sk_find(ptr noundef %14, ptr noundef nonnull %7) #6
  %.inv.i = icmp sgt i32 %15, -1
  br i1 %.inv.i, label %X509_TRUST_get_by_id.exit, label %X509_TRUST_get_by_id.exit.thread

X509_TRUST_get_by_id.exit.thread:                 ; preds = %10, %13
  call void @llvm.lifetime.end.p0(i64 40, ptr nonnull %7) #6
  br label %17

X509_TRUST_get_by_id.exit:                        ; preds = %13
  %narrow.i = add nuw i32 %15, 8
  call void @llvm.lifetime.end.p0(i64 40, ptr nonnull %7) #6
  %16 = icmp slt i32 %narrow.i, 0
  br i1 %16, label %17, label %25

17:                                               ; preds = %X509_TRUST_get_by_id.exit.thread, %X509_TRUST_get_by_id.exit
  %18 = call noalias ptr @CRYPTO_malloc(i64 noundef 40, ptr noundef nonnull @.str, i32 noundef 141) #6
  %19 = icmp eq ptr %18, null
  br i1 %19, label %58, label %20

20:                                               ; preds = %17
  %21 = getelementptr inbounds nuw i8, ptr %18, i64 4
  store i32 1, ptr %21, align 4, !tbaa !51
  br label %X509_TRUST_get0.exit

22:                                               ; preds = %6
  call void @llvm.lifetime.end.p0(i64 40, ptr nonnull %7) #6
  %23 = zext nneg i32 %9 to i64
  %24 = getelementptr inbounds nuw %struct.x509_trust_st, ptr @trstandard, i64 %23
  br label %X509_TRUST_get0.exit

25:                                               ; preds = %X509_TRUST_get_by_id.exit
  %26 = load ptr, ptr @trtable, align 8, !tbaa !7
  %27 = call ptr @OPENSSL_sk_value(ptr noundef %26, i32 noundef %15) #6
  br label %X509_TRUST_get0.exit

X509_TRUST_get0.exit:                             ; preds = %25, %22, %20
  %28 = phi i1 [ true, %20 ], [ false, %22 ], [ false, %25 ]
  %.0 = phi ptr [ %18, %20 ], [ %24, %22 ], [ %27, %25 ]
  %29 = getelementptr inbounds nuw i8, ptr %.0, i64 4
  %30 = load i32, ptr %29, align 4, !tbaa !51
  %31 = and i32 %30, 2
  %.not = icmp eq i32 %31, 0
  br i1 %.not, label %35, label %32

32:                                               ; preds = %X509_TRUST_get0.exit
  %33 = getelementptr inbounds nuw i8, ptr %.0, i64 16
  %34 = load ptr, ptr %33, align 8, !tbaa !52
  call void @CRYPTO_free(ptr noundef %34, ptr noundef nonnull @.str, i32 noundef 149) #6
  br label %35

35:                                               ; preds = %32, %X509_TRUST_get0.exit
  %36 = call noalias ptr @CRYPTO_strdup(ptr noundef %3, ptr noundef nonnull @.str, i32 noundef 151) #6
  %37 = getelementptr inbounds nuw i8, ptr %.0, i64 16
  store ptr %36, ptr %37, align 8, !tbaa !52
  %38 = icmp eq ptr %36, null
  br i1 %38, label %56, label %39

39:                                               ; preds = %35
  %40 = load i32, ptr %29, align 4, !tbaa !51
  %41 = and i32 %40, 1
  %42 = or disjoint i32 %8, %41
  %43 = or disjoint i32 %42, 2
  store i32 %43, ptr %29, align 4, !tbaa !51
  store i32 %0, ptr %.0, align 8, !tbaa !9
  %44 = getelementptr inbounds nuw i8, ptr %.0, i64 8
  store ptr %2, ptr %44, align 8, !tbaa !13
  %45 = getelementptr inbounds nuw i8, ptr %.0, i64 24
  store i32 %4, ptr %45, align 8, !tbaa !53
  %46 = getelementptr inbounds nuw i8, ptr %.0, i64 32
  store ptr %5, ptr %46, align 8, !tbaa !54
  br i1 %28, label %47, label %58

47:                                               ; preds = %39
  %48 = load ptr, ptr @trtable, align 8, !tbaa !7
  %49 = icmp eq ptr %48, null
  br i1 %49, label %50, label %53

50:                                               ; preds = %47
  %51 = call ptr @OPENSSL_sk_new(ptr noundef nonnull @tr_cmp) #6
  store ptr %51, ptr @trtable, align 8, !tbaa !7
  %52 = icmp eq ptr %51, null
  br i1 %52, label %.thread37.sink.split, label %53

53:                                               ; preds = %50, %47
  %54 = phi ptr [ %51, %50 ], [ %48, %47 ]
  %55 = call i32 @OPENSSL_sk_push(ptr noundef nonnull %54, ptr noundef nonnull %.0) #6
  %.not29 = icmp eq i32 %55, 0
  br i1 %.not29, label %.thread37.sink.split, label %58

56:                                               ; preds = %35
  br i1 %28, label %.thread37, label %58

.thread37.sink.split:                             ; preds = %53, %50
  %.sink = phi i32 [ 167, %50 ], [ 171, %53 ]
  call void @ERR_new() #6
  call void @ERR_set_debug(ptr noundef nonnull @.str, i32 noundef %.sink, ptr noundef nonnull @__func__.X509_TRUST_add) #6
  call void (i32, i32, ptr, ...) @ERR_set_error(i32 noundef 11, i32 noundef 524303, ptr noundef null) #6
  br label %.thread37

.thread37:                                        ; preds = %.thread37.sink.split, %56
  %57 = load ptr, ptr %37, align 8, !tbaa !52
  call void @CRYPTO_free(ptr noundef %57, ptr noundef nonnull @.str, i32 noundef 178) #6
  call void @CRYPTO_free(ptr noundef nonnull %.0, ptr noundef nonnull @.str, i32 noundef 179) #6
  br label %58

58:                                               ; preds = %56, %.thread37, %39, %53, %17
  %.026 = phi i32 [ 0, %17 ], [ 1, %53 ], [ 1, %39 ], [ 0, %.thread37 ], [ 0, %56 ]
  ret i32 %.026
}